target datalayout = "e-m:e-p270:32:32-p271:32:32-p272:64:64-i64:64-i128:128-f80:128-n8:16:32:64-S128"
target triple = "x86_64-pc-linux-gnu"

%"class.icu_77::NFRule" = type { i64, i32, i16, i16, %"class.icu_77::UnicodeString", ptr, ptr, ptr, ptr }
%"class.icu_77::UnicodeString" = type { %"class.icu_77::Replaceable", %"union.icu_77::UnicodeString::StackBufferOrFields" }
%"class.icu_77::Replaceable" = type { %"class.icu_77::UObject" }
%"class.icu_77::UObject" = type { ptr }
%"union.icu_77::UnicodeString::StackBufferOrFields" = type { %struct.anon.0, [32 x i8] }
%struct.anon.0 = type { i16, i32, i32, ptr }
%"class.icu_77::LocalPointer.2" = type { %"class.icu_77::LocalPointerBase.3" }
%"class.icu_77::LocalPointerBase.3" = type { ptr }

; Function Attrs: mustprogress nounwind uwtable
define linkonce_odr void @_ZN6icu_7716LocalPointerBaseINS_24CollationElementIteratorEEC2EPS1_(ptr noundef nonnull align 8 dereferenceable(8) %0, ptr noundef %1) unnamed_addr #4 comdat align 2 {
  %3 = alloca ptr, align 8
  %4 = alloca ptr, align 8
  store ptr %0, ptr %3, align 8, !tbaa !103
  store ptr %1, ptr %4, align 8, !tbaa !101
  %5 = load ptr, ptr %3, align 8
  %6 = getelementptr inbounds nuw %"class.icu_77::LocalPointerBase.3", ptr %5, i32 0, i32 0
  %7 = load ptr, ptr %4, align 8, !tbaa !101
  store ptr %7, ptr %6, align 8, !tbaa !105
  ret void
}

; Function Attrs: inlinehint mustprogress nounwind uwtable
define linkonce_odr noundef i32 @_ZNK6icu_7713UnicodeString14getShortLengthEv(ptr noundef nonnull align 8 dereferenceable(64) %0) #2 comdat align 2 {
  %2 = alloca ptr, align 8
  store ptr %0, ptr %2, align 8, !tbaa !10
  %3 = load ptr, ptr %2, align 8
  %4 = getelementptr inbounds nuw %"class.icu_77::UnicodeString", ptr %3, i32 0, i32 1
  %5 = getelementptr inbounds nuw %struct.anon.0, ptr %4, i32 0, i32 0
  %6 = load i16, ptr %5, align 8, !tbaa !31
  %7 = sext i16 %6 to i32
  %8 = ashr i32 %7, 5
  ret i32 %8
}

; Function Attrs: inlinehint mustprogress nounwind uwtable
define linkonce_odr noundef signext i8 @_ZNK6icu_7713UnicodeString14hasShortLengthEv(ptr noundef nonnull align 8 dereferenceable(64) %0) #2 comdat align 2 {
  %2 = alloca ptr, align 8
  store ptr %0, ptr %2, align 8, !tbaa !10
  %3 = load ptr, ptr %2, align 8
  %4 = getelementptr inbounds nuw %"class.icu_77::UnicodeString", ptr %3, i32 0, i32 1
  %5 = getelementptr inbounds nuw %struct.anon.0, ptr %4, i32 0, i32 0
  %6 = load i16, ptr %5, align 8, !tbaa !31
  %7 = sext i16 %6 to i32
  %8 = icmp sge i32 %7, 0
  %9 = zext i1 %8 to i8
  ret i8 %9
}

; Function Attrs: inlinehint mustprogress nounwind uwtable
define linkonce_odr noundef i32 @_ZN6icu_7724CollationElementIterator12primaryOrderEi(i32 noundef %0) #2 comdat align 2 {
  %2 = alloca i32, align 4
  store i32 %0, ptr %2, align 4, !tbaa !32
  %3 = load i32, ptr %2, align 4, !tbaa !32
  %4 = ashr i32 %3, 16
  %5 = and i32 %4, 65535
  ret i32 %5
}

; Function Attrs: mustprogress nounwind uwtable
define linkonce_odr noundef ptr @_ZNK6icu_7716LocalPointerBaseINS_24CollationElementIteratorEEptEv(ptr noundef nonnull align 8 dereferenceable(8) %0) #4 comdat align 2 {
  %2 = alloca ptr, align 8
  store ptr %0, ptr %2, align 8, !tbaa !103
  %3 = load ptr, ptr %2, align 8
  %4 = getelementptr inbounds nuw %"class.icu_77::LocalPointerBase.3", ptr %3, i32 0, i32 0
  %5 = load ptr, ptr %4, align 8, !tbaa !105
  ret ptr %5
}

; Function Attrs: mustprogress nounwind uwtable
define linkonce_odr noundef signext i8 @_ZNK6icu_7716LocalPointerBaseINS_24CollationElementIteratorEE6isNullEv(ptr noundef nonnull align 8 dereferenceable(8) %0) #4 comdat align 2 {
  %2 = alloca ptr, align 8
  store ptr %0, ptr %2, align 8, !tbaa !103
  %3 = load ptr, ptr %2, align 8
  %4 = getelementptr inbounds nuw %"class.icu_77::LocalPointerBase.3", ptr %3, i32 0, i32 0
  %5 = load ptr, ptr %4, align 8, !tbaa !105
  %6 = icmp eq ptr %5, null
  %7 = zext i1 %6 to i8
  ret i8 %7
}

; Function Attrs: mustprogress uwtable
define linkonce_odr void @_ZN6icu_7712LocalPointerINS_24CollationElementIteratorEEC2EPS1_(ptr noundef nonnull align 8 dereferenceable(8) %0, ptr noundef %1) unnamed_addr #0 comdat align 2 {
  %3 = alloca ptr, align 8
  %4 = alloca ptr, align 8
  store ptr %0, ptr %3, align 8, !tbaa !99
  store ptr %1, ptr %4, align 8, !tbaa !101
  %5 = load ptr, ptr %3, align 8
  %6 = load ptr, ptr %4, align 8, !tbaa !101
  call void @_ZN6icu_7716LocalPointerBaseINS_24CollationElementIteratorEEC2EPS1_(ptr noundef nonnull align 8 dereferenceable(8) %5, ptr noundef %6)
  ret void
}

; Function Attrs: inlinehint mustprogress uwtable
define linkonce_odr noundef i32 @_ZNK6icu_7713UnicodeString6lengthEv(ptr noundef nonnull align 8 dereferenceable(64) %0) #6 comdat align 2 {
  %2 = alloca ptr, align 8
  store ptr %0, ptr %2, align 8, !tbaa !10
  %3 = load ptr, ptr %2, align 8
  %4 = call noundef signext i8 @_ZNK6icu_7713UnicodeString14hasShortLengthEv(ptr noundef nonnull align 8 dereferenceable(64) %3)
  %5 = icmp ne i8 %4, 0
  br i1 %5, label %6, label %8

6:                                                ; preds = %1
  %7 = call noundef i32 @_ZNK6icu_7713UnicodeString14getShortLengthEv(ptr noundef nonnull align 8 dereferenceable(64) %3)
  br label %12

8:                                                ; preds = %1
  %9 = getelementptr inbounds nuw %"class.icu_77::UnicodeString", ptr %3, i32 0, i32 1
  %10 = getelementptr inbounds nuw %struct.anon.0, ptr %9, i32 0, i32 1
  %11 = load i32, ptr %10, align 4, !tbaa !31
  br label %12

12:                                               ; preds = %8, %6
  %13 = phi i32 [ %7, %6 ], [ %11, %8 ]
  ret i32 %13
}

; Function Attrs: mustprogress uwtable
define noundef signext i8 @_ZNK6icu_776NFRule12allIgnorableERKNS_13UnicodeStringER10UErrorCode(ptr noundef nonnull align 8 dereferenceable(112) %0, ptr noundef nonnull align 8 dereferenceable(64) %1, ptr noundef nonnull align 4 dereferenceable(4) %2) #0 align 2 personality ptr @__gxx_personality_v0 {
  %4 = alloca i8, align 1
  %5 = alloca ptr, align 8
  %6 = alloca ptr, align 8
  %7 = alloca ptr, align 8
  %8 = alloca ptr, align 8
  %9 = alloca i32, align 4
  %10 = alloca %"class.icu_77::LocalPointer.2", align 8
  %11 = alloca ptr, align 8
  %12 = alloca i32, align 4
  %13 = alloca i32, align 4
  %14 = alloca i32, align 4
  store ptr %0, ptr %5, align 8, !tbaa !3
  store ptr %1, ptr %6, align 8, !tbaa !10
  store ptr %2, ptr %7, align 8, !tbaa !12
  %15 = load ptr, ptr %5, align 8
  %16 = load ptr, ptr %6, align 8, !tbaa !10
  %17 = call noundef i32 @_ZNK6icu_7713UnicodeString6lengthEv(ptr noundef nonnull align 8 dereferenceable(64) %16)
  %18 = icmp eq i32 %17, 0
  br i1 %18, label %19, label %20

19:                                               ; preds = %3
  store i8 1, ptr %4, align 1
  br label %81

20:                                               ; preds = %3
  %21 = getelementptr inbounds nuw %"class.icu_77::NFRule", ptr %15, i32 0, i32 7
  %22 = load ptr, ptr %21, align 8, !tbaa !29
  %23 = load ptr, ptr %22, align 8, !tbaa !42
  %24 = getelementptr inbounds ptr, ptr %23, i64 25
  %25 = load ptr, ptr %24, align 8
  %26 = call noundef signext i8 %25(ptr noundef nonnull align 8 dereferenceable(456) %22)
  %27 = icmp ne i8 %26, 0
  br i1 %27, label %28, label %80

28:                                               ; preds = %20
  call void @llvm.lifetime.start.p0(i64 8, ptr %8) #9
  %29 = getelementptr inbounds nuw %"class.icu_77::NFRule", ptr %15, i32 0, i32 7
  %30 = load ptr, ptr %29, align 8, !tbaa !29
  %31 = call noundef ptr @_ZNK6icu_7721RuleBasedNumberFormat11getCollatorEv(ptr noundef nonnull align 8 dereferenceable(456) %30)
  store ptr %31, ptr %8, align 8, !tbaa !91
  %32 = load ptr, ptr %8, align 8, !tbaa !91
  %33 = icmp eq ptr %32, null
  br i1 %33, label %34, label %36

34:                                               ; preds = %28
  %35 = load ptr, ptr %7, align 8, !tbaa !12
  store i32 7, ptr %35, align 4, !tbaa !37
  store i8 0, ptr %4, align 1
  store i32 1, ptr %9, align 4
  br label %79

36:                                               ; preds = %28
  call void @llvm.lifetime.start.p0(i64 8, ptr %10) #9
  %37 = load ptr, ptr %8, align 8, !tbaa !91
  %38 = load ptr, ptr %6, align 8, !tbaa !10
  %39 = call noundef ptr @_ZNK6icu_7717RuleBasedCollator30createCollationElementIteratorERKNS_13UnicodeStringE(ptr noundef nonnull align 8 dereferenceable(272) %37, ptr noundef nonnull align 8 dereferenceable(64) %38)
  call void @_ZN6icu_7712LocalPointerINS_24CollationElementIteratorEEC2EPS1_(ptr noundef nonnull align 8 dereferenceable(8) %10, ptr noundef %39)
  %40 = invoke noundef signext i8 @_ZNK6icu_7716LocalPointerBaseINS_24CollationElementIteratorEE6isNullEv(ptr noundef nonnull align 8 dereferenceable(8) %10)
          to label %41 unwind label %45

41:                                               ; preds = %36
  %42 = icmp ne i8 %40, 0
  br i1 %42, label %43, label %49

43:                                               ; preds = %41
  %44 = load ptr, ptr %7, align 8, !tbaa !12
  store i32 7, ptr %44, align 4, !tbaa !37
  store i8 0, ptr %4, align 1
  store i32 1, ptr %9, align 4
  br label %77

45:                                               ; preds = %36
  %46 = landingpad { ptr, i32 }
          cleanup
  %47 = extractvalue { ptr, i32 } %46, 0
  store ptr %47, ptr %11, align 8
  %48 = extractvalue { ptr, i32 } %46, 1
  store i32 %48, ptr %12, align 4
  br label %78

49:                                               ; preds = %41
  call void @llvm.lifetime.start.p0(i64 4, ptr %13) #9
  store i32 0, ptr %13, align 4, !tbaa !37
  call void @llvm.lifetime.start.p0(i64 4, ptr %14) #9
  %50 = invoke noundef ptr @_ZNK6icu_7716LocalPointerBaseINS_24CollationElementIteratorEEptEv(ptr noundef nonnull align 8 dereferenceable(8) %10)
          to label %51 unwind label %69

51:                                               ; preds = %49
  %52 = invoke noundef i32 @_ZN6icu_7724CollationElementIterator4nextER10UErrorCode(ptr noundef nonnull align 8 dereferenceable(104) %50, ptr noundef nonnull align 4 dereferenceable(4) %13)
          to label %53 unwind label %69

53:                                               ; preds = %51
  store i32 %52, ptr %14, align 4, !tbaa !32
  br label %54

54:                                               ; preds = %68, %53
  %55 = load i32, ptr %14, align 4, !tbaa !32
  %56 = icmp ne i32 %55, -1
  br i1 %56, label %57, label %62

57:                                               ; preds = %54
  %58 = load i32, ptr %14, align 4, !tbaa !32
  %59 = invoke noundef i32 @_ZN6icu_7724CollationElementIterator12primaryOrderEi(i32 noundef %58)
          to label %60 unwind label %69

60:                                               ; preds = %57
  %61 = icmp eq i32 %59, 0
  br label %62

62:                                               ; preds = %60, %54
  %63 = phi i1 [ false, %54 ], [ %61, %60 ]
  br i1 %63, label %64, label %73

64:                                               ; preds = %62
  %65 = invoke noundef ptr @_ZNK6icu_7716LocalPointerBaseINS_24CollationElementIteratorEEptEv(ptr noundef nonnull align 8 dereferenceable(8) %10)
          to label %66 unwind label %69

66:                                               ; preds = %64
  %67 = invoke noundef i32 @_ZN6icu_7724CollationElementIterator4nextER10UErrorCode(ptr noundef nonnull align 8 dereferenceable(104) %65, ptr noundef nonnull align 4 dereferenceable(4) %13)
          to label %68 unwind label %69

68:                                               ; preds = %66
  store i32 %67, ptr %14, align 4, !tbaa !32
  br label %54, !llvm.loop !96

69:                                               ; preds = %66, %64, %57, %51, %49
  %70 = landingpad { ptr, i32 }
          cleanup
  %71 = extractvalue { ptr, i32 } %70, 0
  store ptr %71, ptr %11, align 8
  %72 = extractvalue { ptr, i32 } %70, 1
  store i32 %72, ptr %12, align 4
  call void @llvm.lifetime.end.p0(i64 4, ptr %14) #9
  call void @llvm.lifetime.end.p0(i64 4, ptr %13) #9
  br label %78

73:                                               ; preds = %62
  %74 = load i32, ptr %14, align 4, !tbaa !32
  %75 = icmp eq i32 %74, -1
  %76 = zext i1 %75 to i8
  store i8 %76, ptr %4, align 1
  store i32 1, ptr %9, align 4
  call void @llvm.lifetime.end.p0(i64 4, ptr %14) #9
  call void @llvm.lifetime.end.p0(i64 4, ptr %13) #9
  br label %77

77:                                               ; preds = %73, %43
  call void @_ZN6icu_7712LocalPointerINS_24CollationElementIteratorEED2Ev(ptr noundef nonnull align 8 dereferenceable(8) %10) #9
  call void @llvm.lifetime.end.p0(i64 8, ptr %10) #9
  br label %79

78:                                               ; preds = %69, %45
  call void @_ZN6icu_7712LocalPointerINS_24CollationElementIteratorEED2Ev(ptr noundef nonnull align 8 dereferenceable(8) %10) #9
  call void @llvm.lifetime.end.p0(i64 8, ptr %10) #9
  call void @llvm.lifetime.end.p0(i64 8, ptr %8) #9
  br label %83

79:                                               ; preds = %77, %34
  call void @llvm.lifetime.end.p0(i64 8, ptr %8) #9
  br label %81

80:                                               ; preds = %20
  store i8 0, ptr %4, align 1
  br label %81

81:                                               ; preds = %80, %79, %19
  %82 = load i8, ptr %4, align 1
  ret i8 %82

83:                                               ; preds = %78
  %84 = load ptr, ptr %11, align 8
  %85 = load i32, ptr %12, align 4
  %86 = insertvalue { ptr, i32 } poison, ptr %84, 0
  %87 = insertvalue { ptr, i32 } %86, i32 %85, 1
  resume { ptr, i32 } %87
}