; Function Attrs: mustprogress uwtable
define noundef signext range(i8 0, 2) i8 @_ZNK6icu_776NFRule12allIgnorableERKNS_13UnicodeStringER10UErrorCode(ptr noundef nonnull readonly align 8 captures(none) dereferenceable(112) %0, ptr noundef nonnull align 8 dereferenceable(64) %1, ptr noundef nonnull writeonly align 4 captures(none) dereferenceable(4) %2) local_unnamed_addr #0 align 2 personality ptr @__gxx_personality_v0 {
  %4 = alloca %"class.icu_77::LocalPointer.2", align 8
  %5 = alloca i32, align 4
  %6 = getelementptr inbounds nuw i8, ptr %1, i64 8
  %7 = load i16, ptr %6, align 8, !tbaa !23
  %8 = icmp slt i16 %7, 0
  %9 = ashr i16 %7, 5
  %10 = sext i16 %9 to i32
  %11 = getelementptr inbounds nuw i8, ptr %1, i64 12
  %12 = load i32, ptr %11, align 4
  %13 = select i1 %8, i32 %12, i32 %10
  %14 = icmp eq i32 %13, 0
  br i1 %14, label %37, label %15

15:                                               ; preds = %3
  %16 = getelementptr inbounds nuw i8, ptr %0, i64 96
  %17 = load ptr, ptr %16, align 8, !tbaa !21
  %18 = load ptr, ptr %17, align 8, !tbaa !24
  %19 = getelementptr inbounds nuw i8, ptr %18, i64 200
  %20 = load ptr, ptr %19, align 8
  %21 = tail call noundef signext i8 %20(ptr noundef nonnull align 8 dereferenceable(456) %17)
  %.not = icmp eq i8 %21, 0
  br i1 %.not, label %37, label %22

22:                                               ; preds = %15
  %23 = load ptr, ptr %16, align 8, !tbaa !21
  %24 = tail call noundef ptr @_ZNK6icu_7721RuleBasedNumberFormat11getCollatorEv(ptr noundef nonnull align 8 dereferenceable(456) %23)
  %25 = icmp eq ptr %24, null
  br i1 %25, label %26, label %27

26:                                               ; preds = %22
  store i32 7, ptr %2, align 4, !tbaa !31
  br label %37

27:                                               ; preds = %22
  call void @llvm.lifetime.start.p0(i64 8, ptr nonnull %4) #9
  %28 = tail call noundef ptr @_ZNK6icu_7717RuleBasedCollator30createCollationElementIteratorERKNS_13UnicodeStringE(ptr noundef nonnull align 8 dereferenceable(272) %24, ptr noundef nonnull align 8 dereferenceable(64) %1)
  store ptr %28, ptr %4, align 8, !tbaa !63
  %.not17 = icmp eq ptr %28, null
  br i1 %.not17, label %.thread, label %29

.thread:                                          ; preds = %27
  store i32 7, ptr %2, align 4, !tbaa !31
  br label %_ZN6icu_7712LocalPointerINS_24CollationElementIteratorEED2Ev.exit

29:                                               ; preds = %27
  call void @llvm.lifetime.start.p0(i64 4, ptr nonnull %5) #9
  store i32 0, ptr %5, align 4, !tbaa !31
  %30 = invoke noundef i32 @_ZN6icu_7724CollationElementIterator4nextER10UErrorCode(ptr noundef nonnull align 8 dereferenceable(104) %28, ptr noundef nonnull align 4 dereferenceable(4) %5)
          to label %.preheader unwind label %.loopexit.split-lp

.preheader:                                       ; preds = %29, %32
  %.0 = phi i32 [ %33, %32 ], [ %30, %29 ]
  %31 = icmp ult i32 %.0, 65536
  br i1 %31, label %32, label %35

32:                                               ; preds = %.preheader
  %33 = invoke noundef i32 @_ZN6icu_7724CollationElementIterator4nextER10UErrorCode(ptr noundef nonnull align 8 dereferenceable(104) %28, ptr noundef nonnull align 4 dereferenceable(4) %5)
          to label %.preheader unwind label %.loopexit, !llvm.loop !69

.loopexit:                                        ; preds = %32
  %lpad.loopexit = landingpad { ptr, i32 }
          cleanup
  br label %34

.loopexit.split-lp:                               ; preds = %29
  %lpad.loopexit.split-lp = landingpad { ptr, i32 }
          cleanup
  br label %34

34:                                               ; preds = %.loopexit.split-lp, %.loopexit
  %lpad.phi = phi { ptr, i32 } [ %lpad.loopexit, %.loopexit ], [ %lpad.loopexit.split-lp, %.loopexit.split-lp ]
  call void @llvm.lifetime.end.p0(i64 4, ptr nonnull %5) #9
  call void @_ZN6icu_7712LocalPointerINS_24CollationElementIteratorEED2Ev(ptr noundef nonnull align 8 dereferenceable(8) %4) #9
  call void @llvm.lifetime.end.p0(i64 8, ptr nonnull %4) #9
  resume { ptr, i32 } %lpad.phi

35:                                               ; preds = %.preheader
  %.not15 = icmp eq i32 %.0, -1
  %36 = zext i1 %.not15 to i8
  call void @llvm.lifetime.end.p0(i64 4, ptr nonnull %5) #9
  call void @_ZN6icu_7724CollationElementIteratorD1Ev(ptr noundef nonnull align 8 dereferenceable(104) %28) #9
  call void @_ZN6icu_777UMemorydlEPv(ptr noundef nonnull %28) #9
  br label %_ZN6icu_7712LocalPointerINS_24CollationElementIteratorEED2Ev.exit

_ZN6icu_7712LocalPointerINS_24CollationElementIteratorEED2Ev.exit: ; preds = %.thread, %35
  %.221 = phi i8 [ 0, %.thread ], [ %36, %35 ]
  call void @llvm.lifetime.end.p0(i64 8, ptr nonnull %4) #9
  br label %37

37:                                               ; preds = %15, %26, %_ZN6icu_7712LocalPointerINS_24CollationElementIteratorEED2Ev.exit, %3
  %.012 = phi i8 [ 1, %3 ], [ 0, %26 ], [ %.221, %_ZN6icu_7712LocalPointerINS_24CollationElementIteratorEED2Ev.exit ], [ 0, %15 ]
  ret i8 %.012
}